; Function Attrs: mustprogress nounwind uwtable
define dso_local void @_ZN4node9inspector8protocol12ErrorSupport6errorsB5cxx11Ev(ptr noalias sret(%"class.std::__cxx11::basic_string") align 8 %agg.result, ptr nocapture noundef nonnull readonly align 8 dereferenceable(48) %this) local_unnamed_addr #1 align 2 {
entry:
  %builder = alloca %"class.std::__cxx11::basic_ostringstream", align 8
  call void @_ZNSt7__cxx1119basic_ostringstreamIcSt11char_traitsIcESaIcEEC1Ev(ptr noundef nonnull align 8 dereferenceable(112) %builder) #27
  %m_errors = getelementptr inbounds i8, ptr %this, i64 24
  %_M_finish.i = getelementptr inbounds i8, ptr %this, i64 32
  %0 = load ptr, ptr %_M_finish.i, align 8
  %1 = load ptr, ptr %m_errors, align 8
  %cmp11.not = icmp eq ptr %0, %1
  br i1 %cmp11.not, label %for.end, label %for.body

for.body:                                         ; preds = %entry, %if.end
  %2 = phi ptr [ %5, %if.end ], [ %1, %entry ]
  %i.012 = phi i64 [ %inc, %if.end ], [ 0, %entry ]
  %tobool.not = icmp eq i64 %i.012, 0
  br i1 %tobool.not, label %if.end, label %if.then

if.then:                                          ; preds = %for.body
  %call.i.i = call noundef nonnull align 8 dereferenceable(8) ptr @_ZNSo5writeEPKcl(ptr noundef nonnull align 8 dereferenceable(8) %builder, ptr noundef nonnull @.str.1, i64 noundef 2) #27
  %3 = load ptr, ptr %m_errors, align 8
  %add.ptr.i = getelementptr inbounds %"class.std::__cxx11::basic_string", ptr %3, i64 %i.012
  br label %if.end

if.end:                                           ; preds = %for.body, %if.then
  %phi.call = phi ptr [ %add.ptr.i, %if.then ], [ %2, %for.body ]
  %call.i6 = call noundef nonnull align 8 dereferenceable(8) ptr @_ZStlsIcSt11char_traitsIcESaIcEERSt13basic_ostreamIT_T0_ES7_RKNSt7__cxx1112basic_stringIS4_S5_T1_EE(ptr noundef nonnull align 8 dereferenceable(8) %builder, ptr noundef nonnull align 8 dereferenceable(32) %phi.call) #27
  %inc = add nuw i64 %i.012, 1
  %4 = load ptr, ptr %_M_finish.i, align 8
  %5 = load ptr, ptr %m_errors, align 8
  %sub.ptr.lhs.cast.i = ptrtoint ptr %4 to i64
  %sub.ptr.rhs.cast.i = ptrtoint ptr %5 to i64
  %sub.ptr.sub.i = sub i64 %sub.ptr.lhs.cast.i, %sub.ptr.rhs.cast.i
  %sub.ptr.div.i = ashr exact i64 %sub.ptr.sub.i, 5
  %cmp = icmp ult i64 %inc, %sub.ptr.div.i
  br i1 %cmp, label %for.body, label %for.end, !llvm.loop !8

for.end:                                          ; preds = %if.end, %entry
  call void @_ZNKSt7__cxx1119basic_ostringstreamIcSt11char_traitsIcESaIcEE3strEv(ptr sret(%"class.std::__cxx11::basic_string") align 8 %agg.result, ptr noundef nonnull align 8 dereferenceable(112) %builder) #27
  call void @_ZNSt7__cxx1119basic_ostringstreamIcSt11char_traitsIcESaIcEED1Ev(ptr noundef nonnull align 8 dereferenceable(112) %builder) #27
  ret void
}